; Function Attrs: mustprogress uwtable
define void @_ZN32pxrInternal_v0_24__pxrReserved__7VtValue13_RegisterCastERKSt9type_infoS3_PFS0_RKS0_E(ptr noundef nonnull align 8 dereferenceable(16) %0, ptr noundef nonnull align 8 dereferenceable(16) %1, ptr noundef %2) local_unnamed_addr #0 align 2 {
  %4 = load atomic i64, ptr @_ZN32pxrInternal_v0_24__pxrReserved__11TfSingletonINS_15Vt_CastRegistryEE9_instanceE seq_cst, align 8
  %.0.i.i = inttoptr i64 %4 to ptr
  %.not.i = icmp eq i64 %4, 0
  br i1 %.not.i, label %5, label %_ZN32pxrInternal_v0_24__pxrReserved__11TfSingletonINS_15Vt_CastRegistryEE11GetInstanceEv.exit

5:                                                ; preds = %3
  %6 = tail call noundef ptr @_ZN32pxrInternal_v0_24__pxrReserved__11TfSingletonINS_15Vt_CastRegistryEE15_CreateInstanceERSt6atomicIPS1_E(ptr noundef nonnull align 8 dereferenceable(8) @_ZN32pxrInternal_v0_24__pxrReserved__11TfSingletonINS_15Vt_CastRegistryEE9_instanceE)
  br label %_ZN32pxrInternal_v0_24__pxrReserved__11TfSingletonINS_15Vt_CastRegistryEE11GetInstanceEv.exit

_ZN32pxrInternal_v0_24__pxrReserved__11TfSingletonINS_15Vt_CastRegistryEE11GetInstanceEv.exit: ; preds = %3, %5
  %.0.i = phi ptr [ %.0.i.i, %3 ], [ %6, %5 ]
  tail call void @_ZN32pxrInternal_v0_24__pxrReserved__15Vt_CastRegistry8RegisterERKSt9type_infoS3_PFNS_7VtValueERKS4_E(ptr noundef nonnull align 8 dereferenceable(600) %.0.i, ptr noundef nonnull align 8 dereferenceable(16) %0, ptr noundef nonnull align 8 dereferenceable(16) %1, ptr noundef %2)
  ret void
}